target datalayout = "e-m:e-p270:32:32-p271:32:32-p272:64:64-i64:64-i128:128-f80:128-n8:16:32:64-S128"
target triple = "x86_64-pc-linux-gnu"

%struct.Fraig_ManStruct_t_ = type { ptr, ptr, ptr, ptr, ptr, ptr, ptr, ptr, ptr, i32, i32, i32, i32, i32, i32, i32, i32, i32, i32, i32, i32, i64, i32, i32, i32, i32, i32, ptr, ptr, ptr, ptr, ptr, i32, ptr, ptr, ptr, ptr, ptr, ptr, i32, ptr, ptr, ptr, ptr, i32, i32, i32, i32, i32, i32, i32, i32, i32, i32, i32, i32, i32, i32, i32, i32, i32, i32, i32, i64, i64, i64, i64, i64, i64, i64, i64, i64, i64, i64, i64 }
%struct.Fraig_NodeVecStruct_t_ = type { i32, i32, ptr }
%struct.Fraig_NodeStruct_t_ = type { i32, i32, i32, i32, i32, i32, i32, ptr, ptr, ptr, ptr, ptr, ptr, ptr, ptr, i32, i32, ptr, ptr, ptr, ptr, ptr, ptr, ptr }
%struct.Fraig_HashTableStruct_t_ = type { ptr, i32, i32 }

@.str.6 = private unnamed_addr constant [50 x i8] c"Nodes %d and %d have the same D simulation info.\0A\00", align 1

; Function Attrs: nounwind uwtable
define internal void @Fraig_FeedBackCheckTableF0(ptr noundef %0) #0 {
  %2 = alloca ptr, align 8
  %3 = alloca ptr, align 8
  %4 = alloca ptr, align 8
  %5 = alloca i32, align 4
  %6 = alloca i32, align 4
  %7 = alloca i32, align 4
  %8 = alloca i32, align 4
  store ptr %0, ptr %2, align 8
  %9 = load ptr, ptr %2, align 8
  %10 = getelementptr inbounds %struct.Fraig_ManStruct_t_, ptr %9, i32 0, i32 8
  %11 = load ptr, ptr %10, align 8
  store ptr %11, ptr %3, align 8
  store i32 0, ptr %8, align 4
  store i32 0, ptr %5, align 4
  br label %12

12:                                               ; preds = %129, %1
  %13 = load i32, ptr %5, align 4
  %14 = load ptr, ptr %3, align 8
  %15 = getelementptr inbounds %struct.Fraig_HashTableStruct_t_, ptr %14, i32 0, i32 1
  %16 = load i32, ptr %15, align 8
  %17 = icmp slt i32 %13, %16
  br i1 %17, label %18, label %132

18:                                               ; preds = %12
  %19 = load ptr, ptr %2, align 8
  %20 = getelementptr inbounds %struct.Fraig_ManStruct_t_, ptr %19, i32 0, i32 27
  %21 = load ptr, ptr %20, align 8
  %22 = getelementptr inbounds %struct.Fraig_NodeVecStruct_t_, ptr %21, i32 0, i32 1
  store i32 0, ptr %22, align 4
  %23 = load ptr, ptr %3, align 8
  %24 = getelementptr inbounds %struct.Fraig_HashTableStruct_t_, ptr %23, i32 0, i32 0
  %25 = load ptr, ptr %24, align 8
  %26 = load i32, ptr %5, align 4
  %27 = sext i32 %26 to i64
  %28 = getelementptr inbounds ptr, ptr %25, i64 %27
  %29 = load ptr, ptr %28, align 8
  store ptr %29, ptr %4, align 8
  br label %30

30:                                               ; preds = %38, %18
  %31 = load ptr, ptr %4, align 8
  %32 = icmp ne ptr %31, null
  br i1 %32, label %33, label %42

33:                                               ; preds = %30
  %34 = load ptr, ptr %2, align 8
  %35 = getelementptr inbounds %struct.Fraig_ManStruct_t_, ptr %34, i32 0, i32 27
  %36 = load ptr, ptr %35, align 8
  %37 = load ptr, ptr %4, align 8
  call void @Fraig_NodeVecPush(ptr noundef %36, ptr noundef %37)
  br label %38

38:                                               ; preds = %33
  %39 = load ptr, ptr %4, align 8
  %40 = getelementptr inbounds %struct.Fraig_NodeStruct_t_, ptr %39, i32 0, i32 11
  %41 = load ptr, ptr %40, align 8
  store ptr %41, ptr %4, align 8
  br label %30, !llvm.loop !23

42:                                               ; preds = %30
  %43 = load ptr, ptr %2, align 8
  %44 = getelementptr inbounds %struct.Fraig_ManStruct_t_, ptr %43, i32 0, i32 27
  %45 = load ptr, ptr %44, align 8
  %46 = getelementptr inbounds %struct.Fraig_NodeVecStruct_t_, ptr %45, i32 0, i32 1
  %47 = load i32, ptr %46, align 4
  %48 = icmp eq i32 %47, 1
  br i1 %48, label %49, label %50

49:                                               ; preds = %42
  br label %129

50:                                               ; preds = %42
  store i32 0, ptr %6, align 4
  br label %51

51:                                               ; preds = %125, %50
  %52 = load i32, ptr %6, align 4
  %53 = load ptr, ptr %2, align 8
  %54 = getelementptr inbounds %struct.Fraig_ManStruct_t_, ptr %53, i32 0, i32 27
  %55 = load ptr, ptr %54, align 8
  %56 = getelementptr inbounds %struct.Fraig_NodeVecStruct_t_, ptr %55, i32 0, i32 1
  %57 = load i32, ptr %56, align 4
  %58 = icmp slt i32 %52, %57
  br i1 %58, label %59, label %128

59:                                               ; preds = %51
  %60 = load i32, ptr %6, align 4
  %61 = add nsw i32 %60, 1
  store i32 %61, ptr %7, align 4
  br label %62

62:                                               ; preds = %121, %59
  %63 = load i32, ptr %7, align 4
  %64 = load ptr, ptr %2, align 8
  %65 = getelementptr inbounds %struct.Fraig_ManStruct_t_, ptr %64, i32 0, i32 27
  %66 = load ptr, ptr %65, align 8
  %67 = getelementptr inbounds %struct.Fraig_NodeVecStruct_t_, ptr %66, i32 0, i32 1
  %68 = load i32, ptr %67, align 4
  %69 = icmp slt i32 %63, %68
  br i1 %69, label %70, label %124

70:                                               ; preds = %62
  %71 = load ptr, ptr %2, align 8
  %72 = getelementptr inbounds %struct.Fraig_ManStruct_t_, ptr %71, i32 0, i32 27
  %73 = load ptr, ptr %72, align 8
  %74 = getelementptr inbounds %struct.Fraig_NodeVecStruct_t_, ptr %73, i32 0, i32 2
  %75 = load ptr, ptr %74, align 8
  %76 = load i32, ptr %6, align 4
  %77 = sext i32 %76 to i64
  %78 = getelementptr inbounds ptr, ptr %75, i64 %77
  %79 = load ptr, ptr %78, align 8
  %80 = load ptr, ptr %2, align 8
  %81 = getelementptr inbounds %struct.Fraig_ManStruct_t_, ptr %80, i32 0, i32 27
  %82 = load ptr, ptr %81, align 8
  %83 = getelementptr inbounds %struct.Fraig_NodeVecStruct_t_, ptr %82, i32 0, i32 2
  %84 = load ptr, ptr %83, align 8
  %85 = load i32, ptr %7, align 4
  %86 = sext i32 %85 to i64
  %87 = getelementptr inbounds ptr, ptr %84, i64 %86
  %88 = load ptr, ptr %87, align 8
  %89 = load ptr, ptr %2, align 8
  %90 = getelementptr inbounds %struct.Fraig_ManStruct_t_, ptr %89, i32 0, i32 24
  %91 = load i32, ptr %90, align 8
  %92 = call i32 @Fraig_CompareSimInfo(ptr noundef %79, ptr noundef %88, i32 noundef %91, i32 noundef 0)
  %93 = icmp ne i32 %92, 0
  br i1 %93, label %94, label %118

94:                                               ; preds = %70
  %95 = load ptr, ptr %2, align 8
  %96 = getelementptr inbounds %struct.Fraig_ManStruct_t_, ptr %95, i32 0, i32 27
  %97 = load ptr, ptr %96, align 8
  %98 = getelementptr inbounds %struct.Fraig_NodeVecStruct_t_, ptr %97, i32 0, i32 2
  %99 = load ptr, ptr %98, align 8
  %100 = load i32, ptr %6, align 4
  %101 = sext i32 %100 to i64
  %102 = getelementptr inbounds ptr, ptr %99, i64 %101
  %103 = load ptr, ptr %102, align 8
  %104 = getelementptr inbounds %struct.Fraig_NodeStruct_t_, ptr %103, i32 0, i32 0
  %105 = load i32, ptr %104, align 8
  %106 = load ptr, ptr %2, align 8
  %107 = getelementptr inbounds %struct.Fraig_ManStruct_t_, ptr %106, i32 0, i32 27
  %108 = load ptr, ptr %107, align 8
  %109 = getelementptr inbounds %struct.Fraig_NodeVecStruct_t_, ptr %108, i32 0, i32 2
  %110 = load ptr, ptr %109, align 8
  %111 = load i32, ptr %7, align 4
  %112 = sext i32 %111 to i64
  %113 = getelementptr inbounds ptr, ptr %110, i64 %112
  %114 = load ptr, ptr %113, align 8
  %115 = getelementptr inbounds %struct.Fraig_NodeStruct_t_, ptr %114, i32 0, i32 0
  %116 = load i32, ptr %115, align 8
  %117 = call i32 (ptr, ...) @printf(ptr noundef @.str.6, i32 noundef %105, i32 noundef %116)
  br label %118

118:                                              ; preds = %94, %70
  %119 = load i32, ptr %8, align 4
  %120 = add nsw i32 %119, 1
  store i32 %120, ptr %8, align 4
  br label %121

121:                                              ; preds = %118
  %122 = load i32, ptr %7, align 4
  %123 = add nsw i32 %122, 1
  store i32 %123, ptr %7, align 4
  br label %62, !llvm.loop !24

124:                                              ; preds = %62
  br label %125

125:                                              ; preds = %124
  %126 = load i32, ptr %6, align 4
  %127 = add nsw i32 %126, 1
  store i32 %127, ptr %6, align 4
  br label %51, !llvm.loop !25

128:                                              ; preds = %51
  br label %129

129:                                              ; preds = %128, %49
  %130 = load i32, ptr %5, align 4
  %131 = add nsw i32 %130, 1
  store i32 %131, ptr %5, align 4
  br label %12, !llvm.loop !26

132:                                              ; preds = %12
  ret void
}