; Function Attrs: nounwind uwtable
define internal fastcc void @Fraig_FeedBackCheckTableF0(ptr noundef readonly captures(none) %0) unnamed_addr #0 {
  %2 = getelementptr inbounds nuw i8, ptr %0, i64 64
  %3 = load ptr, ptr %2, align 8
  %4 = getelementptr inbounds nuw i8, ptr %3, i64 8
  %5 = load i32, ptr %4, align 8
  %6 = icmp sgt i32 %5, 0
  br i1 %6, label %.lr.ph48, label %._crit_edge49

.lr.ph48:                                         ; preds = %1
  %7 = getelementptr inbounds nuw i8, ptr %0, i64 152
  %8 = getelementptr inbounds nuw i8, ptr %0, i64 136
  %.pre = load ptr, ptr %7, align 8
  br label %9

9:                                                ; preds = %.lr.ph48, %.loopexit33
  %10 = phi ptr [ %.pre, %.lr.ph48 ], [ %50, %.loopexit33 ]
  %indvars.iv56 = phi i64 [ 0, %.lr.ph48 ], [ %indvars.iv.next57, %.loopexit33 ]
  %11 = getelementptr inbounds nuw i8, ptr %10, i64 4
  store i32 0, ptr %11, align 4
  %12 = load ptr, ptr %3, align 8
  %13 = getelementptr inbounds nuw ptr, ptr %12, i64 %indvars.iv56
  %.03134 = load ptr, ptr %13, align 8
  %.not35 = icmp eq ptr %.03134, null
  br i1 %.not35, label %._crit_edge, label %.lr.ph

.lr.ph:                                           ; preds = %9, %.lr.ph
  %.03136 = phi ptr [ %.031, %.lr.ph ], [ %.03134, %9 ]
  %14 = load ptr, ptr %7, align 8
  tail call void @Fraig_NodeVecPush(ptr noundef %14, ptr noundef nonnull %.03136) #12
  %15 = getelementptr inbounds nuw i8, ptr %.03136, i64 64
  %.031 = load ptr, ptr %15, align 8
  %.not = icmp eq ptr %.031, null
  br i1 %.not, label %._crit_edge, label %.lr.ph, !llvm.loop !47

._crit_edge:                                      ; preds = %.lr.ph, %9
  %16 = load ptr, ptr %7, align 8
  %17 = getelementptr inbounds nuw i8, ptr %16, i64 4
  %18 = load i32, ptr %17, align 4
  %or.cond = icmp sgt i32 %18, 1
  br i1 %or.cond, label %.lr.ph43, label %.loopexit33

.loopexit.loopexit:                               ; preds = %44
  %.pre62 = sext i32 %47 to i64
  br label %.loopexit

.loopexit:                                        ; preds = %.lr.ph43, %.loopexit.loopexit
  %.pre-phi = phi i64 [ %.pre62, %.loopexit.loopexit ], [ %22, %.lr.ph43 ]
  %.pre5961 = phi i32 [ %47, %.loopexit.loopexit ], [ %.pre59, %.lr.ph43 ]
  %19 = phi ptr [ %45, %.loopexit.loopexit ], [ %21, %.lr.ph43 ]
  %20 = icmp slt i64 %indvars.iv.next54, %.pre-phi
  %indvars.iv.next = add nuw nsw i64 %indvars.iv, 1
  br i1 %20, label %.lr.ph43, label %.loopexit33, !llvm.loop !48

.lr.ph43:                                         ; preds = %._crit_edge, %.loopexit
  %.pre59 = phi i32 [ %.pre5961, %.loopexit ], [ %18, %._crit_edge ]
  %21 = phi ptr [ %19, %.loopexit ], [ %16, %._crit_edge ]
  %indvars.iv53 = phi i64 [ %indvars.iv.next54, %.loopexit ], [ 0, %._crit_edge ]
  %indvars.iv = phi i64 [ %indvars.iv.next, %.loopexit ], [ 1, %._crit_edge ]
  %indvars.iv.next54 = add nuw nsw i64 %indvars.iv53, 1
  %22 = sext i32 %.pre59 to i64
  %23 = icmp slt i64 %indvars.iv.next54, %22
  br i1 %23, label %.lr.ph40, label %.loopexit

.lr.ph40:                                         ; preds = %.lr.ph43, %44
  %indvars.iv50 = phi i64 [ %indvars.iv.next51, %44 ], [ %indvars.iv, %.lr.ph43 ]
  %24 = phi ptr [ %45, %44 ], [ %21, %.lr.ph43 ]
  %25 = getelementptr inbounds nuw i8, ptr %24, i64 8
  %26 = load ptr, ptr %25, align 8
  %27 = getelementptr inbounds nuw ptr, ptr %26, i64 %indvars.iv53
  %28 = load ptr, ptr %27, align 8
  %29 = getelementptr inbounds nuw ptr, ptr %26, i64 %indvars.iv50
  %30 = load ptr, ptr %29, align 8
  %31 = load i32, ptr %8, align 8
  %32 = tail call i32 @Fraig_CompareSimInfo(ptr noundef %28, ptr noundef %30, i32 noundef %31, i32 noundef 0) #12
  %.not32 = icmp eq i32 %32, 0
  br i1 %.not32, label %44, label %33

33:                                               ; preds = %.lr.ph40
  %34 = load ptr, ptr %7, align 8
  %35 = getelementptr inbounds nuw i8, ptr %34, i64 8
  %36 = load ptr, ptr %35, align 8
  %37 = getelementptr inbounds nuw ptr, ptr %36, i64 %indvars.iv53
  %38 = load ptr, ptr %37, align 8
  %39 = load i32, ptr %38, align 8
  %40 = getelementptr inbounds nuw ptr, ptr %36, i64 %indvars.iv50
  %41 = load ptr, ptr %40, align 8
  %42 = load i32, ptr %41, align 8
  %43 = tail call i32 (ptr, ...) @printf(ptr noundef nonnull dereferenceable(1) @.str.6, i32 noundef %39, i32 noundef %42)
  br label %44

44:                                               ; preds = %33, %.lr.ph40
  %indvars.iv.next51 = add nuw nsw i64 %indvars.iv50, 1
  %45 = load ptr, ptr %7, align 8
  %46 = getelementptr inbounds nuw i8, ptr %45, i64 4
  %47 = load i32, ptr %46, align 4
  %48 = trunc nuw i64 %indvars.iv.next51 to i32
  %49 = icmp sgt i32 %47, %48
  br i1 %49, label %.lr.ph40, label %.loopexit.loopexit, !llvm.loop !49

.loopexit33:                                      ; preds = %.loopexit, %._crit_edge
  %50 = phi ptr [ %16, %._crit_edge ], [ %19, %.loopexit ]
  %indvars.iv.next57 = add nuw nsw i64 %indvars.iv56, 1
  %51 = load i32, ptr %4, align 8
  %52 = sext i32 %51 to i64
  %53 = icmp slt i64 %indvars.iv.next57, %52
  br i1 %53, label %9, label %._crit_edge49, !llvm.loop !50

._crit_edge49:                                    ; preds = %.loopexit33, %1
  ret void
}